target datalayout = "e-m:e-p270:32:32-p271:32:32-p272:64:64-i64:64-i128:128-f80:128-n8:16:32:64-S128"
target triple = "x86_64-pc-linux-gnu"

%struct.H5FS_section_class_t = type { i32, i64, i32, ptr, ptr, ptr, ptr, ptr, ptr, ptr, ptr, ptr, ptr, ptr, ptr, ptr, ptr }
%struct.H5FL_reg_head_t = type { i8, i32, i32, ptr, i64, ptr }
%struct.H5MF_free_section_t = type { %struct.H5FS_section_info_t }
%struct.H5FS_section_info_t = type { i64, i64, i32, i32 }

@H5_H5MF_free_section_t_reg_free_list = internal global %struct.H5FL_reg_head_t { i8 0, i32 0, i32 0, ptr @.str.2, i64 24, ptr null }, align 8
@.str = private unnamed_addr constant [105 x i8] c"generated/home/dtcxzyw/WorkSpace/Projects/compilers/llvm-opt-benchmark/bench/hdf5/hdf5/src/H5MFsection.c\00", align 1
@__func__.H5MF__sect_new = private unnamed_addr constant [15 x i8] c"H5MF__sect_new\00", align 1
@H5E_RESOURCE_g = external global i64, align 8
@H5E_NOSPACE_g = external global i64, align 8
@.str.1 = private unnamed_addr constant [60 x i8] c"memory allocation failed for direct block free list section\00", align 1
@__func__.H5MF__sect_deserialize = private unnamed_addr constant [23 x i8] c"H5MF__sect_deserialize\00", align 1
@H5E_CANTALLOC_g = external global i64, align 8
@.str.3 = private unnamed_addr constant [36 x i8] c"can't initialize free space section\00", align 1

; Function Attrs: nounwind uwtable
define ptr @H5MF__sect_new(i32 noundef %0, i64 noundef %1, i64 noundef %2) #0 {
  %4 = alloca i32, align 4
  %5 = alloca i64, align 8
  %6 = alloca i64, align 8
  %7 = alloca ptr, align 8
  %8 = alloca ptr, align 8
  %9 = alloca i8, align 1
  store i32 %0, ptr %4, align 4
  store i64 %1, ptr %5, align 8
  store i64 %2, ptr %6, align 8
  store ptr null, ptr %8, align 8
  store i8 0, ptr %9, align 1
  %10 = call noalias ptr @H5FL_reg_malloc(ptr noundef @H5_H5MF_free_section_t_reg_free_list)
  store ptr %10, ptr %7, align 8
  %11 = icmp eq ptr null, %10
  br i1 %11, label %12, label %27

12:                                               ; preds = %3
  br label %13

13:                                               ; preds = %12
  br label %14

14:                                               ; preds = %13
  br label %15

15:                                               ; preds = %14
  %16 = load i64, ptr @H5E_RESOURCE_g, align 8
  %17 = load i64, ptr @H5E_NOSPACE_g, align 8
  %18 = call i32 (ptr, ptr, i32, i64, i64, ptr, ...) @H5E_printf_stack(ptr noundef @.str, ptr noundef @__func__.H5MF__sect_new, i32 noundef 196, i64 noundef %16, i64 noundef %17, ptr noundef @.str.1)
  br label %19

19:                                               ; preds = %15
  store i8 1, ptr %9, align 1
  %20 = load i8, ptr %9, align 1
  %21 = trunc i8 %20 to i1
  %22 = zext i1 %21 to i8
  store i8 %22, ptr %9, align 1
  br label %23

23:                                               ; preds = %19
  br label %24

24:                                               ; preds = %23
  store ptr null, ptr %8, align 8
  br label %44

25:                                               ; No predecessors!
  br label %26

26:                                               ; preds = %25
  br label %27

27:                                               ; preds = %26, %3
  %28 = load i64, ptr %5, align 8
  %29 = load ptr, ptr %7, align 8
  %30 = getelementptr inbounds %struct.H5MF_free_section_t, ptr %29, i32 0, i32 0
  %31 = getelementptr inbounds %struct.H5FS_section_info_t, ptr %30, i32 0, i32 0
  store i64 %28, ptr %31, align 8
  %32 = load i64, ptr %6, align 8
  %33 = load ptr, ptr %7, align 8
  %34 = getelementptr inbounds %struct.H5MF_free_section_t, ptr %33, i32 0, i32 0
  %35 = getelementptr inbounds %struct.H5FS_section_info_t, ptr %34, i32 0, i32 1
  store i64 %32, ptr %35, align 8
  %36 = load i32, ptr %4, align 4
  %37 = load ptr, ptr %7, align 8
  %38 = getelementptr inbounds %struct.H5MF_free_section_t, ptr %37, i32 0, i32 0
  %39 = getelementptr inbounds %struct.H5FS_section_info_t, ptr %38, i32 0, i32 2
  store i32 %36, ptr %39, align 8
  %40 = load ptr, ptr %7, align 8
  %41 = getelementptr inbounds %struct.H5MF_free_section_t, ptr %40, i32 0, i32 0
  %42 = getelementptr inbounds %struct.H5FS_section_info_t, ptr %41, i32 0, i32 3
  store i32 0, ptr %42, align 4
  %43 = load ptr, ptr %7, align 8
  store ptr %43, ptr %8, align 8
  br label %44

44:                                               ; preds = %27, %24
  %45 = load ptr, ptr %8, align 8
  ret ptr %45
}

; Function Attrs: nounwind uwtable
define internal ptr @H5MF__sect_deserialize(ptr noundef %0, ptr noundef %1, i64 noundef %2, i64 noundef %3, ptr noundef %4) #0 {
  %6 = alloca ptr, align 8
  %7 = alloca ptr, align 8
  %8 = alloca i64, align 8
  %9 = alloca i64, align 8
  %10 = alloca ptr, align 8
  %11 = alloca ptr, align 8
  %12 = alloca ptr, align 8
  %13 = alloca i8, align 1
  store ptr %0, ptr %6, align 8
  store ptr %1, ptr %7, align 8
  store i64 %2, ptr %8, align 8
  store i64 %3, ptr %9, align 8
  store ptr %4, ptr %10, align 8
  store ptr null, ptr %12, align 8
  store i8 0, ptr %13, align 1
  %14 = load ptr, ptr %6, align 8
  %15 = getelementptr inbounds %struct.H5FS_section_class_t, ptr %14, i32 0, i32 0
  %16 = load i32, ptr %15, align 8
  %17 = load i64, ptr %8, align 8
  %18 = load i64, ptr %9, align 8
  %19 = call ptr @H5MF__sect_new(i32 noundef %16, i64 noundef %17, i64 noundef %18)
  store ptr %19, ptr %11, align 8
  %20 = icmp eq ptr null, %19
  br i1 %20, label %21, label %36

21:                                               ; preds = %5
  br label %22

22:                                               ; preds = %21
  br label %23

23:                                               ; preds = %22
  br label %24

24:                                               ; preds = %23
  %25 = load i64, ptr @H5E_RESOURCE_g, align 8
  %26 = load i64, ptr @H5E_CANTALLOC_g, align 8
  %27 = call i32 (ptr, ptr, i32, i64, i64, ptr, ...) @H5E_printf_stack(ptr noundef @.str, ptr noundef @__func__.H5MF__sect_deserialize, i32 noundef 265, i64 noundef %25, i64 noundef %26, ptr noundef @.str.3)
  br label %28

28:                                               ; preds = %24
  store i8 1, ptr %13, align 1
  %29 = load i8, ptr %13, align 1
  %30 = trunc i8 %29 to i1
  %31 = zext i1 %30 to i8
  store i8 %31, ptr %13, align 1
  br label %32

32:                                               ; preds = %28
  br label %33

33:                                               ; preds = %32
  store ptr null, ptr %12, align 8
  br label %38

34:                                               ; No predecessors!
  br label %35

35:                                               ; preds = %34
  br label %36

36:                                               ; preds = %35, %5
  %37 = load ptr, ptr %11, align 8
  store ptr %37, ptr %12, align 8
  br label %38

38:                                               ; preds = %36, %33
  %39 = load ptr, ptr %12, align 8
  ret ptr %39
}