; Function Attrs: nounwind uwtable
define internal noalias ptr @H5MF__sect_deserialize(ptr nocapture noundef readonly %0, ptr nocapture readnone %1, i64 noundef %2, i64 noundef %3, ptr nocapture readnone %4) #0 {
  %6 = load i32, ptr %0, align 8
  %7 = tail call noalias ptr @H5FL_reg_malloc(ptr noundef nonnull @H5_H5MF_free_section_t_reg_free_list) #5
  %8 = icmp eq ptr %7, null
  br i1 %8, label %12, label %H5MF__sect_new.exit

H5MF__sect_new.exit:                              ; preds = %5
  store i64 %2, ptr %7, align 8
  %9 = getelementptr inbounds i8, ptr %7, i64 8
  store i64 %3, ptr %9, align 8
  %10 = getelementptr inbounds i8, ptr %7, i64 16
  store i32 %6, ptr %10, align 8
  %11 = getelementptr inbounds i8, ptr %7, i64 20
  store i32 0, ptr %11, align 4
  br label %19

12:                                               ; preds = %5
  %13 = load i64, ptr @H5E_RESOURCE_g, align 8
  %14 = load i64, ptr @H5E_NOSPACE_g, align 8
  %15 = tail call i32 (ptr, ptr, i32, i64, i64, ptr, ...) @H5E_printf_stack(ptr noundef nonnull @.str, ptr noundef nonnull @__func__.H5MF__sect_new, i32 noundef 196, i64 noundef %13, i64 noundef %14, ptr noundef nonnull @.str.1) #5
  %16 = load i64, ptr @H5E_RESOURCE_g, align 8
  %17 = load i64, ptr @H5E_CANTALLOC_g, align 8
  %18 = tail call i32 (ptr, ptr, i32, i64, i64, ptr, ...) @H5E_printf_stack(ptr noundef nonnull @.str, ptr noundef nonnull @__func__.H5MF__sect_deserialize, i32 noundef 265, i64 noundef %16, i64 noundef %17, ptr noundef nonnull @.str.3) #5
  br label %19

19:                                               ; preds = %H5MF__sect_new.exit, %12
  ret ptr %7
}